target datalayout = "e-m:e-p270:32:32-p271:32:32-p272:64:64-i64:64-i128:128-f80:128-n8:16:32:64-S128"
target triple = "x86_64-pc-linux-gnu"

%struct.PyModuleDef = type { %struct.PyModuleDef_Base, ptr, ptr, i64, ptr, ptr, ptr, ptr, ptr }
%struct.PyModuleDef_Base = type { %struct._object, ptr, i64, ptr }
%struct._object = type { %union.anon, ptr }
%union.anon = type { i64 }
%struct.pysqlite_Connection = type { %struct._object, ptr, ptr, i32, ptr, i32, i32, i32, i64, ptr, ptr, ptr, i32, ptr, ptr, ptr, ptr, ptr, ptr, ptr, ptr, ptr, ptr, ptr, ptr, ptr, ptr, ptr }
%struct.pysqlite_state = type { ptr, ptr, ptr, ptr, ptr, ptr, ptr, ptr, ptr, ptr, ptr, ptr, ptr, i32, i32, ptr, ptr, ptr, ptr, ptr, ptr, ptr, ptr, ptr, ptr, ptr, ptr, ptr, ptr }
%struct.anon = type { i32, i32 }
%struct.pysqlite_Blob = type { %struct._object, ptr, ptr, i32, ptr }

@.str = private unnamed_addr constant [37 x i8] c"Base Connection.__init__ not called.\00", align 1
@.str.1 = private unnamed_addr constant [37 x i8] c"Cannot operate on a closed database.\00", align 1
@.str.2 = private unnamed_addr constant [140 x i8] c"SQLite objects created in a thread can only be used in that same thread. The object was created in thread id %lu and this is thread id %lu.\00", align 1
@_sqlite3module = external global %struct.PyModuleDef, align 8

; Function Attrs: inlinehint nounwind uwtable
define internal ptr @pysqlite_get_state(ptr noundef %0) #2 {
  %2 = alloca ptr, align 8
  %3 = alloca ptr, align 8
  store ptr %0, ptr %2, align 8, !tbaa !22
  call void @llvm.lifetime.start.p0(i64 8, ptr %3) #8
  %4 = load ptr, ptr %2, align 8, !tbaa !22
  %5 = call ptr @PyModule_GetState(ptr noundef %4)
  store ptr %5, ptr %3, align 8, !tbaa !3
  %6 = load ptr, ptr %3, align 8, !tbaa !3
  call void @llvm.lifetime.end.p0(i64 8, ptr %3) #8
  ret ptr %6
}

; Function Attrs: alwaysinline nounwind uwtable
define internal i32 @_Py_IsImmortal(ptr noundef %0) #5 {
  %2 = alloca ptr, align 8
  store ptr %0, ptr %2, align 8, !tbaa !22
  %3 = load ptr, ptr %2, align 8, !tbaa !22
  %4 = getelementptr inbounds nuw %struct._object, ptr %3, i32 0, i32 0
  %5 = getelementptr inbounds nuw %struct.anon, ptr %4, i32 0, i32 0
  %6 = load i32, ptr %5, align 8, !tbaa !65
  %7 = icmp slt i32 %6, 0
  %8 = zext i1 %7 to i32
  ret i32 %8
}

; Function Attrs: alwaysinline nounwind uwtable
define internal void @Py_INCREF(ptr noundef %0) #5 {
  %2 = alloca ptr, align 8
  %3 = alloca i32, align 4
  %4 = alloca i32, align 4
  store ptr %0, ptr %2, align 8, !tbaa !22
  call void @llvm.lifetime.start.p0(i64 4, ptr %3) #8
  %5 = load ptr, ptr %2, align 8, !tbaa !22
  %6 = getelementptr inbounds nuw %struct._object, ptr %5, i32 0, i32 0
  %7 = getelementptr inbounds nuw %struct.anon, ptr %6, i32 0, i32 0
  %8 = load i32, ptr %7, align 8, !tbaa !65
  store i32 %8, ptr %3, align 4, !tbaa !30
  %9 = load i32, ptr %3, align 4, !tbaa !30
  %10 = icmp slt i32 %9, 0
  br i1 %10, label %11, label %12

11:                                               ; preds = %1
  store i32 1, ptr %4, align 4
  br label %18

12:                                               ; preds = %1
  %13 = load i32, ptr %3, align 4, !tbaa !30
  %14 = add i32 %13, 1
  %15 = load ptr, ptr %2, align 8, !tbaa !22
  %16 = getelementptr inbounds nuw %struct._object, ptr %15, i32 0, i32 0
  %17 = getelementptr inbounds nuw %struct.anon, ptr %16, i32 0, i32 0
  store i32 %14, ptr %17, align 8, !tbaa !65
  store i32 0, ptr %4, align 4
  br label %18

18:                                               ; preds = %12, %11
  call void @llvm.lifetime.end.p0(i64 4, ptr %3) #8
  %19 = load i32, ptr %4, align 4
  switch i32 %19, label %21 [
    i32 0, label %20
    i32 1, label %20
  ]

20:                                               ; preds = %18, %18
  ret void

21:                                               ; preds = %18
  unreachable
}

; Function Attrs: inlinehint nounwind uwtable
define internal ptr @pysqlite_get_state_by_type(ptr noundef %0) #2 {
  %2 = alloca ptr, align 8
  %3 = alloca ptr, align 8
  store ptr %0, ptr %2, align 8, !tbaa !21
  call void @llvm.lifetime.start.p0(i64 8, ptr %3) #8
  %4 = load ptr, ptr %2, align 8, !tbaa !21
  %5 = call ptr @PyType_GetModuleByDef(ptr noundef %4, ptr noundef @_sqlite3module)
  store ptr %5, ptr %3, align 8, !tbaa !22
  %6 = load ptr, ptr %3, align 8, !tbaa !22
  %7 = call ptr @pysqlite_get_state(ptr noundef %6)
  call void @llvm.lifetime.end.p0(i64 8, ptr %3) #8
  ret ptr %7
}

; Function Attrs: inlinehint nounwind uwtable
define internal ptr @_Py_TYPE(ptr noundef %0) #2 {
  %2 = alloca ptr, align 8
  store ptr %0, ptr %2, align 8, !tbaa !22
  %3 = load ptr, ptr %2, align 8, !tbaa !22
  %4 = getelementptr inbounds nuw %struct._object, ptr %3, i32 0, i32 1
  %5 = load ptr, ptr %4, align 8, !tbaa !23
  ret ptr %5
}

; Function Attrs: inlinehint nounwind uwtable
define internal void @Py_XDECREF(ptr noundef %0) #2 {
  %2 = alloca ptr, align 8
  store ptr %0, ptr %2, align 8, !tbaa !22
  %3 = load ptr, ptr %2, align 8, !tbaa !22
  %4 = icmp ne ptr %3, null
  br i1 %4, label %5, label %7

5:                                                ; preds = %1
  %6 = load ptr, ptr %2, align 8, !tbaa !22
  call void @Py_DECREF(ptr noundef %6)
  br label %7

7:                                                ; preds = %5, %1
  ret void
}

; Function Attrs: alwaysinline nounwind uwtable
define internal void @Py_DECREF(ptr noundef %0) #5 {
  %2 = alloca ptr, align 8
  store ptr %0, ptr %2, align 8, !tbaa !22
  %3 = load ptr, ptr %2, align 8, !tbaa !22
  %4 = call i32 @_Py_IsImmortal(ptr noundef %3)
  %5 = icmp ne i32 %4, 0
  br i1 %5, label %6, label %7

6:                                                ; preds = %1
  br label %16

7:                                                ; preds = %1
  %8 = load ptr, ptr %2, align 8, !tbaa !22
  %9 = getelementptr inbounds nuw %struct._object, ptr %8, i32 0, i32 0
  %10 = getelementptr inbounds nuw %struct.anon, ptr %9, i32 0, i32 0
  %11 = load i32, ptr %10, align 8, !tbaa !65
  %12 = add i32 %11, -1
  store i32 %12, ptr %10, align 8, !tbaa !65
  %13 = icmp eq i32 %12, 0
  br i1 %13, label %14, label %16

14:                                               ; preds = %7
  %15 = load ptr, ptr %2, align 8, !tbaa !22
  call void @_Py_Dealloc(ptr noundef %15)
  br label %16

16:                                               ; preds = %6, %14, %7
  ret void
}

; Function Attrs: inlinehint nounwind uwtable
define internal ptr @_Py_NewRef(ptr noundef %0) #2 {
  %2 = alloca ptr, align 8
  store ptr %0, ptr %2, align 8, !tbaa !22
  %3 = load ptr, ptr %2, align 8, !tbaa !22
  call void @Py_INCREF(ptr noundef %3)
  %4 = load ptr, ptr %2, align 8, !tbaa !22
  ret ptr %4
}

; Function Attrs: nounwind uwtable
define hidden i32 @pysqlite_check_connection(ptr noundef %0) #0 {
  %2 = alloca i32, align 4
  %3 = alloca ptr, align 8
  %4 = alloca ptr, align 8
  store ptr %0, ptr %3, align 8, !tbaa !3
  %5 = load ptr, ptr %3, align 8, !tbaa !3
  %6 = getelementptr inbounds nuw %struct.pysqlite_Connection, ptr %5, i32 0, i32 7
  %7 = load i32, ptr %6, align 8, !tbaa !7
  %8 = icmp ne i32 %7, 0
  br i1 %8, label %16, label %9

9:                                                ; preds = %1
  call void @llvm.lifetime.start.p0(i64 8, ptr %4) #8
  %10 = load ptr, ptr %3, align 8, !tbaa !3
  %11 = call ptr @_Py_TYPE(ptr noundef %10)
  %12 = call ptr @pysqlite_get_state_by_type(ptr noundef %11)
  store ptr %12, ptr %4, align 8, !tbaa !3
  %13 = load ptr, ptr %4, align 8, !tbaa !3
  %14 = getelementptr inbounds nuw %struct.pysqlite_state, ptr %13, i32 0, i32 8
  %15 = load ptr, ptr %14, align 8, !tbaa !17
  call void @PyErr_SetString(ptr noundef %15, ptr noundef @.str)
  store i32 0, ptr %2, align 4
  call void @llvm.lifetime.end.p0(i64 8, ptr %4) #8
  br label %28

16:                                               ; preds = %1
  %17 = load ptr, ptr %3, align 8, !tbaa !3
  %18 = getelementptr inbounds nuw %struct.pysqlite_Connection, ptr %17, i32 0, i32 1
  %19 = load ptr, ptr %18, align 8, !tbaa !19
  %20 = icmp ne ptr %19, null
  br i1 %20, label %27, label %21

21:                                               ; preds = %16
  %22 = load ptr, ptr %3, align 8, !tbaa !3
  %23 = getelementptr inbounds nuw %struct.pysqlite_Connection, ptr %22, i32 0, i32 2
  %24 = load ptr, ptr %23, align 8, !tbaa !20
  %25 = getelementptr inbounds nuw %struct.pysqlite_state, ptr %24, i32 0, i32 8
  %26 = load ptr, ptr %25, align 8, !tbaa !17
  call void @PyErr_SetString(ptr noundef %26, ptr noundef @.str.1)
  store i32 0, ptr %2, align 4
  br label %28

27:                                               ; preds = %16
  store i32 1, ptr %2, align 4
  br label %28

28:                                               ; preds = %27, %21, %9
  %29 = load i32, ptr %2, align 4
  ret i32 %29
}

; Function Attrs: nounwind uwtable
define hidden i32 @pysqlite_check_thread(ptr noundef %0) #0 {
  %2 = alloca i32, align 4
  %3 = alloca ptr, align 8
  store ptr %0, ptr %3, align 8, !tbaa !3
  %4 = load ptr, ptr %3, align 8, !tbaa !3
  %5 = getelementptr inbounds nuw %struct.pysqlite_Connection, ptr %4, i32 0, i32 6
  %6 = load i32, ptr %5, align 4, !tbaa !24
  %7 = icmp ne i32 %6, 0
  br i1 %7, label %8, label %24

8:                                                ; preds = %1
  %9 = call i64 @PyThread_get_thread_ident()
  %10 = load ptr, ptr %3, align 8, !tbaa !3
  %11 = getelementptr inbounds nuw %struct.pysqlite_Connection, ptr %10, i32 0, i32 8
  %12 = load i64, ptr %11, align 8, !tbaa !25
  %13 = icmp ne i64 %9, %12
  br i1 %13, label %14, label %23

14:                                               ; preds = %8
  %15 = load ptr, ptr %3, align 8, !tbaa !3
  %16 = getelementptr inbounds nuw %struct.pysqlite_Connection, ptr %15, i32 0, i32 26
  %17 = load ptr, ptr %16, align 8, !tbaa !26
  %18 = load ptr, ptr %3, align 8, !tbaa !3
  %19 = getelementptr inbounds nuw %struct.pysqlite_Connection, ptr %18, i32 0, i32 8
  %20 = load i64, ptr %19, align 8, !tbaa !25
  %21 = call i64 @PyThread_get_thread_ident()
  %22 = call ptr (ptr, ptr, ...) @PyErr_Format(ptr noundef %17, ptr noundef @.str.2, i64 noundef %20, i64 noundef %21)
  store i32 0, ptr %2, align 4
  br label %25

23:                                               ; preds = %8
  br label %24

24:                                               ; preds = %23, %1
  store i32 1, ptr %2, align 4
  br label %25

25:                                               ; preds = %24, %14
  %26 = load i32, ptr %2, align 4
  ret i32 %26
}

; Function Attrs: nounwind uwtable
define internal ptr @blobopen_impl(ptr noundef %0, ptr noundef %1, ptr noundef %2, i64 noundef %3, i32 noundef %4, ptr noundef %5) #0 {
  %7 = alloca ptr, align 8
  %8 = alloca ptr, align 8
  %9 = alloca ptr, align 8
  %10 = alloca ptr, align 8
  %11 = alloca i64, align 8
  %12 = alloca i32, align 4
  %13 = alloca ptr, align 8
  %14 = alloca i32, align 4
  %15 = alloca ptr, align 8
  %16 = alloca ptr, align 8
  %17 = alloca i32, align 4
  %18 = alloca ptr, align 8
  %19 = alloca ptr, align 8
  store ptr %0, ptr %8, align 8, !tbaa !3
  store ptr %1, ptr %9, align 8, !tbaa !42
  store ptr %2, ptr %10, align 8, !tbaa !42
  store i64 %3, ptr %11, align 8, !tbaa !71
  store i32 %4, ptr %12, align 4, !tbaa !30
  store ptr %5, ptr %13, align 8, !tbaa !42
  %20 = load ptr, ptr %8, align 8, !tbaa !3
  %21 = call i32 @pysqlite_check_thread(ptr noundef %20)
  %22 = icmp ne i32 %21, 0
  br i1 %22, label %23, label %27

23:                                               ; preds = %6
  %24 = load ptr, ptr %8, align 8, !tbaa !3
  %25 = call i32 @pysqlite_check_connection(ptr noundef %24)
  %26 = icmp ne i32 %25, 0
  br i1 %26, label %28, label %27

27:                                               ; preds = %23, %6
  store ptr null, ptr %7, align 8
  br label %110

28:                                               ; preds = %23
  call void @llvm.lifetime.start.p0(i64 4, ptr %14) #8
  call void @llvm.lifetime.start.p0(i64 8, ptr %15) #8
  call void @llvm.lifetime.start.p0(i64 8, ptr %16) #8
  %29 = call ptr @PyEval_SaveThread()
  store ptr %29, ptr %16, align 8, !tbaa !58
  %30 = load ptr, ptr %8, align 8, !tbaa !3
  %31 = getelementptr inbounds nuw %struct.pysqlite_Connection, ptr %30, i32 0, i32 1
  %32 = load ptr, ptr %31, align 8, !tbaa !19
  %33 = load ptr, ptr %13, align 8, !tbaa !42
  %34 = load ptr, ptr %9, align 8, !tbaa !42
  %35 = load ptr, ptr %10, align 8, !tbaa !42
  %36 = load i64, ptr %11, align 8, !tbaa !71
  %37 = load i32, ptr %12, align 4, !tbaa !30
  %38 = icmp ne i32 %37, 0
  %39 = xor i1 %38, true
  %40 = zext i1 %39 to i32
  %41 = call i32 @sqlite3_blob_open(ptr noundef %32, ptr noundef %33, ptr noundef %34, ptr noundef %35, i64 noundef %36, i32 noundef %40, ptr noundef %15)
  store i32 %41, ptr %14, align 4, !tbaa !30
  %42 = load ptr, ptr %16, align 8, !tbaa !58
  call void @PyEval_RestoreThread(ptr noundef %42)
  call void @llvm.lifetime.end.p0(i64 8, ptr %16) #8
  %43 = load i32, ptr %14, align 4, !tbaa !30
  %44 = icmp eq i32 %43, 21
  br i1 %44, label %45, label %54

45:                                               ; preds = %28
  %46 = load ptr, ptr %8, align 8, !tbaa !3
  %47 = getelementptr inbounds nuw %struct.pysqlite_Connection, ptr %46, i32 0, i32 2
  %48 = load ptr, ptr %47, align 8, !tbaa !20
  %49 = getelementptr inbounds nuw %struct.pysqlite_state, ptr %48, i32 0, i32 4
  %50 = load ptr, ptr %49, align 8, !tbaa !104
  %51 = load i32, ptr %14, align 4, !tbaa !30
  %52 = call ptr @sqlite3_errstr(i32 noundef %51)
  %53 = call ptr (ptr, ptr, ...) @PyErr_Format(ptr noundef %50, ptr noundef %52)
  store ptr null, ptr %7, align 8
  store i32 1, ptr %17, align 4
  br label %109

54:                                               ; preds = %28
  %55 = load i32, ptr %14, align 4, !tbaa !30
  %56 = icmp ne i32 %55, 0
  br i1 %56, label %57, label %65

57:                                               ; preds = %54
  %58 = load ptr, ptr %8, align 8, !tbaa !3
  %59 = getelementptr inbounds nuw %struct.pysqlite_Connection, ptr %58, i32 0, i32 2
  %60 = load ptr, ptr %59, align 8, !tbaa !20
  %61 = load ptr, ptr %8, align 8, !tbaa !3
  %62 = getelementptr inbounds nuw %struct.pysqlite_Connection, ptr %61, i32 0, i32 1
  %63 = load ptr, ptr %62, align 8, !tbaa !19
  %64 = call i32 @_pysqlite_seterror(ptr noundef %60, ptr noundef %63)
  store ptr null, ptr %7, align 8
  store i32 1, ptr %17, align 4
  br label %109

65:                                               ; preds = %54
  br label %66

66:                                               ; preds = %65
  call void @llvm.lifetime.start.p0(i64 8, ptr %18) #8
  %67 = load ptr, ptr %8, align 8, !tbaa !3
  %68 = getelementptr inbounds nuw %struct.pysqlite_Connection, ptr %67, i32 0, i32 2
  %69 = load ptr, ptr %68, align 8, !tbaa !20
  %70 = getelementptr inbounds nuw %struct.pysqlite_state, ptr %69, i32 0, i32 15
  %71 = load ptr, ptr %70, align 8, !tbaa !105
  %72 = call ptr @_PyObject_GC_New(ptr noundef %71)
  store ptr %72, ptr %18, align 8, !tbaa !3
  %73 = load ptr, ptr %18, align 8, !tbaa !3
  %74 = icmp eq ptr %73, null
  br i1 %74, label %75, label %76

75:                                               ; preds = %66
  br label %106

76:                                               ; preds = %66
  %77 = load ptr, ptr %8, align 8, !tbaa !3
  %78 = call ptr @_Py_NewRef(ptr noundef %77)
  %79 = load ptr, ptr %18, align 8, !tbaa !3
  %80 = getelementptr inbounds nuw %struct.pysqlite_Blob, ptr %79, i32 0, i32 1
  store ptr %78, ptr %80, align 8, !tbaa !106
  %81 = load ptr, ptr %15, align 8, !tbaa !109
  %82 = load ptr, ptr %18, align 8, !tbaa !3
  %83 = getelementptr inbounds nuw %struct.pysqlite_Blob, ptr %82, i32 0, i32 2
  store ptr %81, ptr %83, align 8, !tbaa !110
  %84 = load ptr, ptr %18, align 8, !tbaa !3
  %85 = getelementptr inbounds nuw %struct.pysqlite_Blob, ptr %84, i32 0, i32 3
  store i32 0, ptr %85, align 8, !tbaa !111
  %86 = load ptr, ptr %18, align 8, !tbaa !3
  %87 = getelementptr inbounds nuw %struct.pysqlite_Blob, ptr %86, i32 0, i32 4
  store ptr null, ptr %87, align 8, !tbaa !112
  %88 = load ptr, ptr %18, align 8, !tbaa !3
  call void @PyObject_GC_Track(ptr noundef %88)
  %89 = load ptr, ptr %18, align 8, !tbaa !3
  %90 = call ptr @PyWeakref_NewRef(ptr noundef %89, ptr noundef null)
  store ptr %90, ptr %19, align 8, !tbaa !22
  %91 = load ptr, ptr %19, align 8, !tbaa !22
  %92 = icmp eq ptr %91, null
  br i1 %92, label %93, label %94

93:                                               ; preds = %76
  br label %106

94:                                               ; preds = %76
  %95 = load ptr, ptr %8, align 8, !tbaa !3
  %96 = getelementptr inbounds nuw %struct.pysqlite_Connection, ptr %95, i32 0, i32 11
  %97 = load ptr, ptr %96, align 8, !tbaa !47
  %98 = load ptr, ptr %19, align 8, !tbaa !22
  %99 = call i32 @PyList_Append(ptr noundef %97, ptr noundef %98)
  store i32 %99, ptr %14, align 4, !tbaa !30
  %100 = load ptr, ptr %19, align 8, !tbaa !22
  call void @Py_DECREF(ptr noundef %100)
  %101 = load i32, ptr %14, align 4, !tbaa !30
  %102 = icmp slt i32 %101, 0
  br i1 %102, label %103, label %104

103:                                              ; preds = %94
  br label %106

104:                                              ; preds = %94
  %105 = load ptr, ptr %18, align 8, !tbaa !3
  store ptr %105, ptr %7, align 8
  store i32 1, ptr %17, align 4
  br label %108

106:                                              ; preds = %103, %93, %75
  %107 = load ptr, ptr %18, align 8, !tbaa !3
  call void @Py_XDECREF(ptr noundef %107)
  store ptr null, ptr %7, align 8
  store i32 1, ptr %17, align 4
  br label %108

108:                                              ; preds = %106, %104
  call void @llvm.lifetime.end.p0(i64 8, ptr %18) #8
  br label %109

109:                                              ; preds = %108, %57, %45
  call void @llvm.lifetime.end.p0(i64 8, ptr %15) #8
  call void @llvm.lifetime.end.p0(i64 4, ptr %14) #8
  br label %110

110:                                              ; preds = %109, %27
  %111 = load ptr, ptr %7, align 8
  ret ptr %111
}