; Function Attrs: nounwind uwtable
define internal fastcc ptr @blobopen_impl(ptr noundef %0, ptr noundef nonnull %1, ptr noundef nonnull %2, i64 noundef %3, i32 noundef range(i32 0, -2147483648) %4, ptr noundef %5) unnamed_addr #0 {
  %7 = alloca ptr, align 8
  %8 = getelementptr inbounds nuw i8, ptr %0, i64 52
  %9 = load i32, ptr %8, align 4, !tbaa !21
  %.not.i38 = icmp eq i32 %9, 0
  br i1 %.not.i38, label %18, label %10

10:                                               ; preds = %6
  %11 = tail call i64 @PyThread_get_thread_ident() #7
  %12 = getelementptr inbounds nuw i8, ptr %0, i64 64
  %13 = load i64, ptr %12, align 8, !tbaa !22
  %.not5.i = icmp eq i64 %11, %13
  br i1 %.not5.i, label %18, label %pysqlite_check_thread.exit

pysqlite_check_thread.exit:                       ; preds = %10
  %14 = getelementptr inbounds nuw i8, ptr %0, i64 208
  %15 = load ptr, ptr %14, align 8, !tbaa !23
  %16 = tail call i64 @PyThread_get_thread_ident() #7
  %17 = tail call ptr (ptr, ptr, ...) @PyErr_Format(ptr noundef %15, ptr noundef nonnull @.str.2, i64 noundef %13, i64 noundef %16) #7
  br label %80

18:                                               ; preds = %10, %6
  %19 = getelementptr inbounds nuw i8, ptr %0, i64 56
  %20 = load i32, ptr %19, align 8, !tbaa !3
  %.not.i39 = icmp eq i32 %20, 0
  br i1 %.not.i39, label %21, label %25

21:                                               ; preds = %18
  %22 = getelementptr i8, ptr %0, i64 8
  %.val.i = load ptr, ptr %22, align 8, !tbaa !16
  %23 = tail call ptr @PyType_GetModuleByDef(ptr noundef %.val.i, ptr noundef nonnull @_sqlite3module) #7
  %24 = tail call ptr @PyModule_GetState(ptr noundef %23) #7
  br label %pysqlite_check_connection.exit.thread

25:                                               ; preds = %18
  %26 = getelementptr inbounds nuw i8, ptr %0, i64 16
  %27 = load ptr, ptr %26, align 8, !tbaa !17
  %.not5.i40 = icmp eq ptr %27, null
  br i1 %.not5.i40, label %28, label %pysqlite_check_connection.exit

28:                                               ; preds = %25
  %29 = getelementptr inbounds nuw i8, ptr %0, i64 24
  %30 = load ptr, ptr %29, align 8, !tbaa !18
  br label %pysqlite_check_connection.exit.thread

pysqlite_check_connection.exit.thread:            ; preds = %21, %28
  %.sink.i = phi ptr [ %30, %28 ], [ %24, %21 ]
  %.str.1.sink.i = phi ptr [ @.str.1, %28 ], [ @.str, %21 ]
  %31 = getelementptr inbounds nuw i8, ptr %.sink.i, i64 64
  %32 = load ptr, ptr %31, align 8, !tbaa !19
  tail call void @PyErr_SetString(ptr noundef %32, ptr noundef nonnull %.str.1.sink.i) #7
  br label %80

pysqlite_check_connection.exit:                   ; preds = %25
  call void @llvm.lifetime.start.p0(i64 8, ptr nonnull %7) #7
  %33 = tail call ptr @PyEval_SaveThread() #7
  %34 = load ptr, ptr %26, align 8, !tbaa !17
  %.not36 = icmp eq i32 %4, 0
  %35 = zext i1 %.not36 to i32
  %36 = call i32 @sqlite3_blob_open(ptr noundef %34, ptr noundef %5, ptr noundef nonnull %1, ptr noundef nonnull %2, i64 noundef %3, i32 noundef %35, ptr noundef nonnull %7) #7
  call void @PyEval_RestoreThread(ptr noundef %33) #7
  %37 = getelementptr inbounds nuw i8, ptr %0, i64 24
  %38 = load ptr, ptr %37, align 8, !tbaa !18
  switch i32 %36, label %44 [
    i32 21, label %39
    i32 0, label %47
  ]

39:                                               ; preds = %pysqlite_check_connection.exit
  %40 = getelementptr inbounds nuw i8, ptr %38, i64 32
  %41 = load ptr, ptr %40, align 8, !tbaa !62
  %42 = call ptr @sqlite3_errstr(i32 noundef 21) #7
  %43 = call ptr (ptr, ptr, ...) @PyErr_Format(ptr noundef %41, ptr noundef %42) #7
  br label %Py_XDECREF.exit

44:                                               ; preds = %pysqlite_check_connection.exit
  %45 = load ptr, ptr %26, align 8, !tbaa !17
  %46 = call i32 @_pysqlite_seterror(ptr noundef %38, ptr noundef %45) #7
  br label %Py_XDECREF.exit

47:                                               ; preds = %pysqlite_check_connection.exit
  %48 = getelementptr inbounds nuw i8, ptr %38, i64 112
  %49 = load ptr, ptr %48, align 8, !tbaa !107
  %50 = call ptr @_PyObject_GC_New(ptr noundef %49) #7
  %51 = icmp eq ptr %50, null
  br i1 %51, label %Py_XDECREF.exit, label %52

52:                                               ; preds = %47
  %53 = load i32, ptr %0, align 8, !tbaa !34
  %54 = icmp slt i32 %53, 0
  br i1 %54, label %_Py_NewRef.exit, label %55

55:                                               ; preds = %52
  %56 = add nuw i32 %53, 1
  store i32 %56, ptr %0, align 8, !tbaa !34
  br label %_Py_NewRef.exit

_Py_NewRef.exit:                                  ; preds = %52, %55
  %57 = getelementptr inbounds nuw i8, ptr %50, i64 16
  store ptr %0, ptr %57, align 8, !tbaa !108
  %58 = load ptr, ptr %7, align 8, !tbaa !111
  %59 = getelementptr inbounds nuw i8, ptr %50, i64 24
  store ptr %58, ptr %59, align 8, !tbaa !112
  %60 = getelementptr inbounds nuw i8, ptr %50, i64 32
  store i32 0, ptr %60, align 8, !tbaa !113
  %61 = getelementptr inbounds nuw i8, ptr %50, i64 40
  store ptr null, ptr %61, align 8, !tbaa !114
  call void @PyObject_GC_Track(ptr noundef nonnull %50) #7
  %62 = call ptr @PyWeakref_NewRef(ptr noundef nonnull %50, ptr noundef null) #7
  %63 = icmp eq ptr %62, null
  br i1 %63, label %74, label %64

64:                                               ; preds = %_Py_NewRef.exit
  %65 = getelementptr inbounds nuw i8, ptr %0, i64 88
  %66 = load ptr, ptr %65, align 8, !tbaa !54
  %67 = call i32 @PyList_Append(ptr noundef %66, ptr noundef nonnull %62) #7
  %68 = load i32, ptr %62, align 8, !tbaa !34
  %.not.i = icmp sgt i32 %68, -1
  br i1 %.not.i, label %69, label %Py_DECREF.exit

69:                                               ; preds = %64
  %70 = add nsw i32 %68, -1
  store i32 %70, ptr %62, align 8, !tbaa !34
  %71 = icmp eq i32 %70, 0
  br i1 %71, label %72, label %Py_DECREF.exit

72:                                               ; preds = %69
  call void @_Py_Dealloc(ptr noundef nonnull %62) #7
  br label %Py_DECREF.exit

Py_DECREF.exit:                                   ; preds = %64, %69, %72
  %73 = icmp slt i32 %67, 0
  br i1 %73, label %74, label %Py_XDECREF.exit

74:                                               ; preds = %Py_DECREF.exit, %_Py_NewRef.exit
  %75 = load i32, ptr %50, align 8, !tbaa !34
  %.not.i.i = icmp sgt i32 %75, -1
  br i1 %.not.i.i, label %76, label %Py_XDECREF.exit

76:                                               ; preds = %74
  %77 = add nsw i32 %75, -1
  store i32 %77, ptr %50, align 8, !tbaa !34
  %78 = icmp eq i32 %77, 0
  br i1 %78, label %79, label %Py_XDECREF.exit

79:                                               ; preds = %76
  call void @_Py_Dealloc(ptr noundef nonnull %50) #7
  br label %Py_XDECREF.exit

Py_XDECREF.exit:                                  ; preds = %79, %76, %74, %47, %Py_DECREF.exit, %44, %39
  %.1 = phi ptr [ null, %39 ], [ null, %44 ], [ %50, %Py_DECREF.exit ], [ null, %47 ], [ null, %74 ], [ null, %76 ], [ null, %79 ]
  call void @llvm.lifetime.end.p0(i64 8, ptr nonnull %7) #7
  br label %80

80:                                               ; preds = %pysqlite_check_connection.exit.thread, %pysqlite_check_thread.exit, %Py_XDECREF.exit
  %.0 = phi ptr [ %.1, %Py_XDECREF.exit ], [ null, %pysqlite_check_thread.exit ], [ null, %pysqlite_check_connection.exit.thread ]
  ret ptr %.0
}